target datalayout = "e-m:e-p270:32:32-p271:32:32-p272:64:64-i64:64-i128:128-f80:128-n8:16:32:64-S128"
target triple = "x86_64-pc-linux-gnu"

@ws_opterr = external global i32, align 4
@optstring = internal constant [65 x i8] c"a:b:B:c:Df:F:i:ILps:y:d:K:nN:R:t:u:Y:r:C:g:HhjJ:klm:o:P:Svw:X:z:\00", align 16
@ws_optarg = external global ptr, align 8
@.str = private unnamed_addr constant [33 x i8] c"Can't create directory\0A\22%s\22:\0A%s.\00", align 1
@.str.1 = private unnamed_addr constant [52 x i8] c"Can't copy file \22%s\22 in directory\0A\22%s\22 to\0A\22%s\22:\0A%s.\00", align 1
@.str.2 = private unnamed_addr constant [42 x i8] c"Configuration Profile \22%s\22 does not exist\00", align 1
@.str.3 = private unnamed_addr constant [55 x i8] c"-P flag \22%s\22 failed (hint: is it quoted and existing?)\00", align 1
@.str.4 = private unnamed_addr constant [11 x i8] c"lua_script\00", align 1
@.str.5 = private unnamed_addr constant [65 x i8] c"This version of %s was not built with support for Lua scripting.\00", align 1

; Function Attrs: null_pointer_is_valid sspstrong uwtable
define hidden void @commandline_early_options(i32 noundef %0, ptr noundef %1) #0 {
  %3 = alloca i32, align 4
  %4 = alloca ptr, align 8
  %5 = alloca i32, align 4
  %6 = alloca i8, align 1
  %7 = alloca ptr, align 8
  %8 = alloca ptr, align 8
  %9 = alloca ptr, align 8
  store i32 %0, ptr %3, align 4
  store ptr %1, ptr %4, align 8
  call void @llvm.lifetime.start.p0(i64 4, ptr %5) #9
  call void @llvm.lifetime.start.p0(i64 1, ptr %6) #9
  store i32 0, ptr @ws_opterr, align 4
  store i8 0, ptr %6, align 1
  br label %10

10:                                               ; preds = %69, %2
  %11 = load i32, ptr %3, align 4
  %12 = load ptr, ptr %4, align 8
  %13 = call i32 @ws_getopt_long(i32 noundef %11, ptr noundef %12, ptr noundef @optstring, ptr noundef @long_options, ptr noundef null)
  store i32 %13, ptr %5, align 4
  %14 = icmp ne i32 %13, -1
  br i1 %14, label %15, label %70

15:                                               ; preds = %10
  %16 = load i32, ptr %5, align 4
  switch i32 %16, label %69 [
    i32 67, label %17
    i32 68, label %56
    i32 104, label %57
    i32 80, label %58
    i32 118, label %65
    i32 88, label %66
    i32 63, label %69
  ]

17:                                               ; preds = %15
  %18 = load ptr, ptr @ws_optarg, align 8
  %19 = call zeroext i1 @profile_exists(ptr noundef %18, i1 noundef zeroext false)
  br i1 %19, label %20, label %22

20:                                               ; preds = %17
  %21 = load ptr, ptr @ws_optarg, align 8
  call void @set_profile_name(ptr noundef %21)
  br label %55

22:                                               ; preds = %17
  %23 = load ptr, ptr @ws_optarg, align 8
  %24 = call zeroext i1 @profile_exists(ptr noundef %23, i1 noundef zeroext true)
  br i1 %24, label %25, label %52

25:                                               ; preds = %22
  call void @llvm.lifetime.start.p0(i64 8, ptr %7) #9
  call void @llvm.lifetime.start.p0(i64 8, ptr %8) #9
  call void @llvm.lifetime.start.p0(i64 8, ptr %9) #9
  %26 = load ptr, ptr @ws_optarg, align 8
  %27 = call i32 @create_persconffile_profile(ptr noundef %26, ptr noundef %7)
  %28 = icmp eq i32 %27, -1
  br i1 %28, label %29, label %35

29:                                               ; preds = %25
  %30 = load ptr, ptr %7, align 8
  %31 = call ptr @__errno_location() #10
  %32 = load i32, ptr %31, align 4
  %33 = call ptr @g_strerror(i32 noundef %32) #10
  call void (ptr, ...) @cmdarg_err(ptr noundef @.str, ptr noundef %30, ptr noundef %33)
  %34 = load ptr, ptr %7, align 8
  call void @g_free(ptr noundef %34)
  call void @exit(i32 noundef 3) #11
  unreachable

35:                                               ; preds = %25
  %36 = load ptr, ptr @ws_optarg, align 8
  %37 = load ptr, ptr @ws_optarg, align 8
  %38 = call i32 @copy_persconffile_profile(ptr noundef %36, ptr noundef %37, i1 noundef zeroext true, ptr noundef %9, ptr noundef %7, ptr noundef %8)
  %39 = icmp eq i32 %38, -1
  br i1 %39, label %40, label %50

40:                                               ; preds = %35
  %41 = load ptr, ptr %9, align 8
  %42 = load ptr, ptr %8, align 8
  %43 = load ptr, ptr %7, align 8
  %44 = call ptr @__errno_location() #10
  %45 = load i32, ptr %44, align 4
  %46 = call ptr @g_strerror(i32 noundef %45) #10
  call void (ptr, ...) @cmdarg_err(ptr noundef @.str.1, ptr noundef %41, ptr noundef %42, ptr noundef %43, ptr noundef %46)
  %47 = load ptr, ptr %9, align 8
  call void @g_free(ptr noundef %47)
  %48 = load ptr, ptr %7, align 8
  call void @g_free(ptr noundef %48)
  %49 = load ptr, ptr %8, align 8
  call void @g_free(ptr noundef %49)
  call void @exit(i32 noundef 3) #11
  unreachable

50:                                               ; preds = %35
  %51 = load ptr, ptr @ws_optarg, align 8
  call void @set_profile_name(ptr noundef %51)
  call void @llvm.lifetime.end.p0(i64 8, ptr %9) #9
  call void @llvm.lifetime.end.p0(i64 8, ptr %8) #9
  call void @llvm.lifetime.end.p0(i64 8, ptr %7) #9
  br label %54

52:                                               ; preds = %22
  %53 = load ptr, ptr @ws_optarg, align 8
  call void (ptr, ...) @cmdarg_err(ptr noundef @.str.2, ptr noundef %53)
  call void @exit(i32 noundef 1) #11
  unreachable

54:                                               ; preds = %50
  br label %55

55:                                               ; preds = %54, %20
  br label %69

56:                                               ; preds = %15
  store i8 1, ptr %6, align 1
  br label %69

57:                                               ; preds = %15
  call void @commandline_print_usage(i1 noundef zeroext true)
  call void @exit(i32 noundef 0) #11
  unreachable

58:                                               ; preds = %15
  %59 = load i32, ptr %5, align 4
  %60 = load ptr, ptr @ws_optarg, align 8
  %61 = call zeroext i1 @persfilepath_opt(i32 noundef %59, ptr noundef %60)
  br i1 %61, label %64, label %62

62:                                               ; preds = %58
  %63 = load ptr, ptr @ws_optarg, align 8
  call void (ptr, ...) @cmdarg_err(ptr noundef @.str.3, ptr noundef %63)
  call void @exit(i32 noundef 0) #11
  unreachable

64:                                               ; preds = %58
  br label %69

65:                                               ; preds = %15
  call void @show_version()
  call void @exit(i32 noundef 0) #11
  unreachable

66:                                               ; preds = %15
  %67 = load ptr, ptr @ws_optarg, align 8
  %68 = call zeroext i1 @ex_opt_add(ptr noundef %67)
  br label %69

69:                                               ; preds = %15, %15, %66, %64, %56, %55
  br label %10, !llvm.loop !6

70:                                               ; preds = %10
  %71 = call i32 @ex_opt_count(ptr noundef @.str.4)
  %72 = icmp sgt i32 %71, 0
  br i1 %72, label %73, label %75

73:                                               ; preds = %70
  %74 = call ptr @application_flavor_name_proper()
  call void (ptr, ...) @cmdarg_err(ptr noundef @.str.5, ptr noundef %74)
  call void @exit(i32 noundef 1) #11
  unreachable

75:                                               ; preds = %70
  %76 = load i8, ptr %6, align 1, !range !8, !noundef !9
  %77 = trunc i8 %76 to i1
  br i1 %77, label %78, label %79

78:                                               ; preds = %75
  call void @print_no_capture_support_error()
  call void @commandline_print_usage(i1 noundef zeroext false)
  call void @exit(i32 noundef 0) #11
  unreachable

79:                                               ; preds = %75
  call void @llvm.lifetime.end.p0(i64 1, ptr %6) #9
  call void @llvm.lifetime.end.p0(i64 4, ptr %5) #9
  ret void
}