; Function Attrs: null_pointer_is_valid sspstrong uwtable
define hidden void @commandline_early_options(i32 noundef %0, ptr noundef %1) local_unnamed_addr #0 {
  %3 = alloca ptr, align 8
  %4 = alloca ptr, align 8
  %5 = alloca ptr, align 8
  store i32 0, ptr @ws_opterr, align 4
  br label %.outer

.outer:                                           ; preds = %6, %2
  %.0.ph = phi i1 [ false, %2 ], [ true, %6 ]
  br label %6

6:                                                ; preds = %.backedge, %.outer
  %7 = call i32 @ws_getopt_long(i32 noundef %0, ptr noundef %1, ptr noundef nonnull @optstring, ptr noundef nonnull @long_options, ptr noundef null)
  switch i32 %7, label %.backedge [
    i32 -1, label %53
    i32 67, label %8
    i32 68, label %.outer
    i32 104, label %43
    i32 80, label %44
    i32 118, label %49
    i32 88, label %50
  ], !llvm.loop !6

.backedge:                                        ; preds = %6, %44, %12, %39, %50
  br label %6, !llvm.loop !6

8:                                                ; preds = %6
  %9 = load ptr, ptr @ws_optarg, align 8
  %10 = call zeroext i1 @profile_exists(ptr noundef %9, i1 noundef zeroext false)
  %11 = load ptr, ptr @ws_optarg, align 8
  br i1 %10, label %12, label %13

12:                                               ; preds = %8
  call void @set_profile_name(ptr noundef %11)
  br label %.backedge

13:                                               ; preds = %8
  %14 = call zeroext i1 @profile_exists(ptr noundef %11, i1 noundef zeroext true)
  br i1 %14, label %15, label %41

15:                                               ; preds = %13
  call void @llvm.lifetime.start.p0(i64 8, ptr nonnull %3) #9
  call void @llvm.lifetime.start.p0(i64 8, ptr nonnull %4) #9
  call void @llvm.lifetime.start.p0(i64 8, ptr nonnull %5) #9
  %16 = load ptr, ptr @ws_optarg, align 8
  %17 = call i32 @create_persconffile_profile(ptr noundef %16, ptr noundef nonnull %3)
  %18 = icmp eq i32 %17, -1
  br i1 %18, label %19, label %25

19:                                               ; preds = %15
  %20 = load ptr, ptr %3, align 8
  %21 = tail call ptr @__errno_location() #10
  %22 = load i32, ptr %21, align 4
  %23 = call ptr @g_strerror(i32 noundef %22) #10
  call void (ptr, ...) @cmdarg_err(ptr noundef nonnull @.str, ptr noundef %20, ptr noundef %23)
  %24 = load ptr, ptr %3, align 8
  call void @g_free(ptr noundef %24)
  call void @exit(i32 noundef 3) #11
  unreachable

25:                                               ; preds = %15
  %26 = load ptr, ptr @ws_optarg, align 8
  %27 = call i32 @copy_persconffile_profile(ptr noundef %26, ptr noundef %26, i1 noundef zeroext true, ptr noundef nonnull %5, ptr noundef nonnull %3, ptr noundef nonnull %4)
  %28 = icmp eq i32 %27, -1
  br i1 %28, label %29, label %39

29:                                               ; preds = %25
  %30 = load ptr, ptr %5, align 8
  %31 = load ptr, ptr %4, align 8
  %32 = load ptr, ptr %3, align 8
  %33 = tail call ptr @__errno_location() #10
  %34 = load i32, ptr %33, align 4
  %35 = call ptr @g_strerror(i32 noundef %34) #10
  call void (ptr, ...) @cmdarg_err(ptr noundef nonnull @.str.1, ptr noundef %30, ptr noundef %31, ptr noundef %32, ptr noundef %35)
  %36 = load ptr, ptr %5, align 8
  call void @g_free(ptr noundef %36)
  %37 = load ptr, ptr %3, align 8
  call void @g_free(ptr noundef %37)
  %38 = load ptr, ptr %4, align 8
  call void @g_free(ptr noundef %38)
  call void @exit(i32 noundef 3) #11
  unreachable

39:                                               ; preds = %25
  %40 = load ptr, ptr @ws_optarg, align 8
  call void @set_profile_name(ptr noundef %40)
  call void @llvm.lifetime.end.p0(i64 8, ptr nonnull %5) #9
  call void @llvm.lifetime.end.p0(i64 8, ptr nonnull %4) #9
  call void @llvm.lifetime.end.p0(i64 8, ptr nonnull %3) #9
  br label %.backedge

41:                                               ; preds = %13
  %42 = load ptr, ptr @ws_optarg, align 8
  call void (ptr, ...) @cmdarg_err(ptr noundef nonnull @.str.2, ptr noundef %42)
  call void @exit(i32 noundef 1) #11
  unreachable

43:                                               ; preds = %6
  call fastcc void @commandline_print_usage(i1 noundef zeroext true)
  call void @exit(i32 noundef 0) #12
  unreachable

44:                                               ; preds = %6
  %45 = load ptr, ptr @ws_optarg, align 8
  %46 = call zeroext i1 @persfilepath_opt(i32 noundef 80, ptr noundef %45)
  br i1 %46, label %.backedge, label %47

47:                                               ; preds = %44
  %48 = load ptr, ptr @ws_optarg, align 8
  call void (ptr, ...) @cmdarg_err(ptr noundef nonnull @.str.3, ptr noundef %48)
  call void @exit(i32 noundef 0) #12
  unreachable

49:                                               ; preds = %6
  call void @show_version()
  call void @exit(i32 noundef 0) #12
  unreachable

50:                                               ; preds = %6
  %51 = load ptr, ptr @ws_optarg, align 8
  %52 = call zeroext i1 @ex_opt_add(ptr noundef %51)
  br label %.backedge

53:                                               ; preds = %6
  %54 = call i32 @ex_opt_count(ptr noundef nonnull @.str.4)
  %55 = icmp sgt i32 %54, 0
  br i1 %55, label %56, label %58

56:                                               ; preds = %53
  %57 = call ptr @application_flavor_name_proper()
  call void (ptr, ...) @cmdarg_err(ptr noundef nonnull @.str.5, ptr noundef %57)
  call void @exit(i32 noundef 1) #11
  unreachable

58:                                               ; preds = %53
  br i1 %.0.ph, label %59, label %60

59:                                               ; preds = %58
  call fastcc void @print_no_capture_support_error()
  call fastcc void @commandline_print_usage(i1 noundef zeroext false)
  call void @exit(i32 noundef 0) #12
  unreachable

60:                                               ; preds = %58
  ret void
}